; Function Attrs: nounwind uwtable
define range(i32 -22, 1) i32 @CVodeSetStopTime(ptr noundef %0, double noundef %1) local_unnamed_addr #0 {
  %3 = icmp eq ptr %0, null
  br i1 %3, label %4, label %5

4:                                                ; preds = %2
  tail call void (ptr, i32, i32, ptr, ptr, ptr, ...) @cvProcessError(ptr noundef null, i32 noundef -21, i32 noundef 663, ptr noundef nonnull @__func__.CVodeSetStopTime, ptr noundef nonnull @.str, ptr noundef nonnull @.str.1) #7
  br label %21

5:                                                ; preds = %2
  %6 = getelementptr inbounds nuw i8, ptr %0, i64 856
  %7 = load i64, ptr %6, align 8
  %8 = icmp sgt i64 %7, 0
  br i1 %8, label %9, label %18

9:                                                ; preds = %5
  %10 = getelementptr inbounds nuw i8, ptr %0, i64 360
  %11 = load double, ptr %10, align 8
  %12 = fsub double %1, %11
  %13 = getelementptr inbounds nuw i8, ptr %0, i64 320
  %14 = load double, ptr %13, align 8
  %15 = fmul double %12, %14
  %16 = fcmp olt double %15, 0.000000e+00
  br i1 %16, label %17, label %18

17:                                               ; preds = %9
  tail call void (ptr, i32, i32, ptr, ptr, ptr, ...) @cvProcessError(ptr noundef nonnull %0, i32 noundef -22, i32 noundef 676, ptr noundef nonnull @__func__.CVodeSetStopTime, ptr noundef nonnull @.str, ptr noundef nonnull @.str.10, double noundef %1, double noundef %11) #7
  br label %21

18:                                               ; preds = %9, %5
  %19 = getelementptr inbounds nuw i8, ptr %0, i64 280
  store double %1, ptr %19, align 8
  %20 = getelementptr inbounds nuw i8, ptr %0, i64 272
  store i32 1, ptr %20, align 8
  br label %21

21:                                               ; preds = %18, %17, %4
  %.0 = phi i32 [ -21, %4 ], [ -22, %17 ], [ 0, %18 ]
  ret i32 %.0
}